ccopy_reg
_reconstructor
p0
(cPhysicsTools.HeppyCore.framework.config
DataComponent
p1
c__builtin__
object
p2
Ntp3
Rp4
(dp5
S'files'
p6
(lp7
S'root://eoscms.cern.ch//eos/cms/store/cmst3/group/bpark/BParkingNANO_2019Sep12/ParkingBPH2/crab_data_Run2018B_part2/190912_183627/0000//BParkNANO_data_2019Sep12_603.root'
p8
aS'root://eoscms.cern.ch//eos/cms/store/cmst3/group/bpark/BParkingNANO_2019Sep12/ParkingBPH2/crab_data_Run2018B_part2/190912_183627/0000//BParkNANO_data_2019Sep12_604.root'
p9
aS'root://eoscms.cern.ch//eos/cms/store/cmst3/group/bpark/BParkingNANO_2019Sep12/ParkingBPH2/crab_data_Run2018B_part2/190912_183627/0000//BParkNANO_data_2019Sep12_605.root'
p10
aS'root://eoscms.cern.ch//eos/cms/store/cmst3/group/bpark/BParkingNANO_2019Sep12/ParkingBPH2/crab_data_Run2018B_part2/190912_183627/0000//BParkNANO_data_2019Sep12_606.root'
p11
aS'root://eoscms.cern.ch//eos/cms/store/cmst3/group/bpark/BParkingNANO_2019Sep12/ParkingBPH2/crab_data_Run2018B_part2/190912_183627/0000//BParkNANO_data_2019Sep12_607.root'
p12
aS'root://eoscms.cern.ch//eos/cms/store/cmst3/group/bpark/BParkingNANO_2019Sep12/ParkingBPH2/crab_data_Run2018B_part2/190912_183627/0000//BParkNANO_data_2019Sep12_608.root'
p13
aS'root://eoscms.cern.ch//eos/cms/store/cmst3/group/bpark/BParkingNANO_2019Sep12/ParkingBPH2/crab_data_Run2018B_part2/190912_183627/0000//BParkNANO_data_2019Sep12_609.root'
p14
aS'root://eoscms.cern.ch//eos/cms/store/cmst3/group/bpark/BParkingNANO_2019Sep12/ParkingBPH2/crab_data_Run2018B_part2/190912_183627/0000//BParkNANO_data_2019Sep12_61.root'
p15
aS'root://eoscms.cern.ch//eos/cms/store/cmst3/group/bpark/BParkingNANO_2019Sep12/ParkingBPH2/crab_data_Run2018B_part2/190912_183627/0000//BParkNANO_data_2019Sep12_610.root'
p16
aS'root://eoscms.cern.ch//eos/cms/store/cmst3/group/bpark/BParkingNANO_2019Sep12/ParkingBPH2/crab_data_Run2018B_part2/190912_183627/0000//BParkNANO_data_2019Sep12_611.root'
p17
asS'isEmbed'
p18
I00
sS'name'
p19
S'RunB2018_part2_0_Chunk56'
p20
sS'isData'
p21
I01
sS'triggers'
p22
(lp23
S'HLT_Mu9_IP6_*'
p24
aS'HLT_Mu9_IP5_*'
p25
aS'HLT_Mu9_IP4_*'
p26
asS'splitFactor'
p27
I100
sS'dataset_entries'
p28
I0
sS'json'
p29
NsS'isMC'
p30
I00
sS'tree_name'
p31
NsS'intLumi'
p32
I1
sb.