ccopy_reg
_reconstructor
p0
(cPhysicsTools.HeppyCore.framework.config
DataComponent
p1
c__builtin__
object
p2
Ntp3
Rp4
(dp5
S'files'
p6
(lp7
S'root://eoscms.cern.ch//eos/cms/store/cmst3/group/bpark/BParkingNANO_2019Sep12/ParkingBPH2//crab_data_Run2018A_part2/190912_154729/0000//BParkNANO_data_2019Sep12_225.root'
p8
aS'root://eoscms.cern.ch//eos/cms/store/cmst3/group/bpark/BParkingNANO_2019Sep12/ParkingBPH2//crab_data_Run2018A_part2/190912_154729/0000//BParkNANO_data_2019Sep12_226.root'
p9
aS'root://eoscms.cern.ch//eos/cms/store/cmst3/group/bpark/BParkingNANO_2019Sep12/ParkingBPH2//crab_data_Run2018A_part2/190912_154729/0000//BParkNANO_data_2019Sep12_227.root'
p10
aS'root://eoscms.cern.ch//eos/cms/store/cmst3/group/bpark/BParkingNANO_2019Sep12/ParkingBPH2//crab_data_Run2018A_part2/190912_154729/0000//BParkNANO_data_2019Sep12_228.root'
p11
aS'root://eoscms.cern.ch//eos/cms/store/cmst3/group/bpark/BParkingNANO_2019Sep12/ParkingBPH2//crab_data_Run2018A_part2/190912_154729/0000//BParkNANO_data_2019Sep12_229.root'
p12
aS'root://eoscms.cern.ch//eos/cms/store/cmst3/group/bpark/BParkingNANO_2019Sep12/ParkingBPH2//crab_data_Run2018A_part2/190912_154729/0000//BParkNANO_data_2019Sep12_23.root'
p13
aS'root://eoscms.cern.ch//eos/cms/store/cmst3/group/bpark/BParkingNANO_2019Sep12/ParkingBPH2//crab_data_Run2018A_part2/190912_154729/0000//BParkNANO_data_2019Sep12_230.root'
p14
aS'root://eoscms.cern.ch//eos/cms/store/cmst3/group/bpark/BParkingNANO_2019Sep12/ParkingBPH2//crab_data_Run2018A_part2/190912_154729/0000//BParkNANO_data_2019Sep12_231.root'
p15
aS'root://eoscms.cern.ch//eos/cms/store/cmst3/group/bpark/BParkingNANO_2019Sep12/ParkingBPH2//crab_data_Run2018A_part2/190912_154729/0000//BParkNANO_data_2019Sep12_232.root'
p16
aS'root://eoscms.cern.ch//eos/cms/store/cmst3/group/bpark/BParkingNANO_2019Sep12/ParkingBPH2//crab_data_Run2018A_part2/190912_154729/0000//BParkNANO_data_2019Sep12_233.root'
p17
asS'isEmbed'
p18
I00
sS'name'
p19
S'RunA2018_part2_0_Chunk14'
p20
sS'isData'
p21
I01
sS'triggers'
p22
(lp23
S'HLT_Mu9_IP6_*'
p24
aS'HLT_Mu9_IP5_*'
p25
aS'HLT_Mu9_IP4_*'
p26
asS'splitFactor'
p27
I100
sS'dataset_entries'
p28
I0
sS'json'
p29
NsS'isMC'
p30
I00
sS'tree_name'
p31
NsS'intLumi'
p32
I1
sb.