ccopy_reg
_reconstructor
p0
(cPhysicsTools.HeppyCore.framework.config
DataComponent
p1
c__builtin__
object
p2
Ntp3
Rp4
(dp5
S'files'
p6
(lp7
S'root://eoscms.cern.ch//eos/cms/store/cmst3/group/bpark/BParkingNANO_2019Sep12/ParkingBPH2/crab_data_Run2018B_part2/190912_183627/0001//BParkNANO_data_2019Sep12_1120.root'
p8
aS'root://eoscms.cern.ch//eos/cms/store/cmst3/group/bpark/BParkingNANO_2019Sep12/ParkingBPH2/crab_data_Run2018B_part2/190912_183627/0001//BParkNANO_data_2019Sep12_1121.root'
p9
aS'root://eoscms.cern.ch//eos/cms/store/cmst3/group/bpark/BParkingNANO_2019Sep12/ParkingBPH2/crab_data_Run2018B_part2/190912_183627/0001//BParkNANO_data_2019Sep12_1122.root'
p10
aS'root://eoscms.cern.ch//eos/cms/store/cmst3/group/bpark/BParkingNANO_2019Sep12/ParkingBPH2/crab_data_Run2018B_part2/190912_183627/0001//BParkNANO_data_2019Sep12_1123.root'
p11
asS'isEmbed'
p12
I00
sS'name'
p13
S'RunB2018_part2_1_Chunk30'
p14
sS'isData'
p15
I01
sS'triggers'
p16
(lp17
S'HLT_Mu9_IP6_*'
p18
aS'HLT_Mu9_IP5_*'
p19
aS'HLT_Mu9_IP4_*'
p20
asS'splitFactor'
p21
I100
sS'dataset_entries'
p22
I0
sS'json'
p23
NsS'isMC'
p24
I00
sS'tree_name'
p25
NsS'intLumi'
p26
I1
sb.