ccopy_reg
_reconstructor
p0
(cPhysicsTools.HeppyCore.framework.config
DataComponent
p1
c__builtin__
object
p2
Ntp3
Rp4
(dp5
S'files'
p6
(lp7
S'root://eoscms.cern.ch//eos/cms/store/cmst3/group/bpark/BParkingNANO_2019Sep12/ParkingBPH2/crab_data_Run2018C_part2/190912_155245/0000//BParkNANO_data_2019Sep12_957.root'
p8
aS'root://eoscms.cern.ch//eos/cms/store/cmst3/group/bpark/BParkingNANO_2019Sep12/ParkingBPH2/crab_data_Run2018C_part2/190912_155245/0000//BParkNANO_data_2019Sep12_958.root'
p9
aS'root://eoscms.cern.ch//eos/cms/store/cmst3/group/bpark/BParkingNANO_2019Sep12/ParkingBPH2/crab_data_Run2018C_part2/190912_155245/0000//BParkNANO_data_2019Sep12_959.root'
p10
aS'root://eoscms.cern.ch//eos/cms/store/cmst3/group/bpark/BParkingNANO_2019Sep12/ParkingBPH2/crab_data_Run2018C_part2/190912_155245/0000//BParkNANO_data_2019Sep12_96.root'
p11
aS'root://eoscms.cern.ch//eos/cms/store/cmst3/group/bpark/BParkingNANO_2019Sep12/ParkingBPH2/crab_data_Run2018C_part2/190912_155245/0000//BParkNANO_data_2019Sep12_960.root'
p12
aS'root://eoscms.cern.ch//eos/cms/store/cmst3/group/bpark/BParkingNANO_2019Sep12/ParkingBPH2/crab_data_Run2018C_part2/190912_155245/0000//BParkNANO_data_2019Sep12_961.root'
p13
aS'root://eoscms.cern.ch//eos/cms/store/cmst3/group/bpark/BParkingNANO_2019Sep12/ParkingBPH2/crab_data_Run2018C_part2/190912_155245/0000//BParkNANO_data_2019Sep12_962.root'
p14
aS'root://eoscms.cern.ch//eos/cms/store/cmst3/group/bpark/BParkingNANO_2019Sep12/ParkingBPH2/crab_data_Run2018C_part2/190912_155245/0000//BParkNANO_data_2019Sep12_963.root'
p15
aS'root://eoscms.cern.ch//eos/cms/store/cmst3/group/bpark/BParkingNANO_2019Sep12/ParkingBPH2/crab_data_Run2018C_part2/190912_155245/0000//BParkNANO_data_2019Sep12_964.root'
p16
aS'root://eoscms.cern.ch//eos/cms/store/cmst3/group/bpark/BParkingNANO_2019Sep12/ParkingBPH2/crab_data_Run2018C_part2/190912_155245/0000//BParkNANO_data_2019Sep12_965.root'
p17
aS'root://eoscms.cern.ch//eos/cms/store/cmst3/group/bpark/BParkingNANO_2019Sep12/ParkingBPH2/crab_data_Run2018C_part2/190912_155245/0000//BParkNANO_data_2019Sep12_966.root'
p18
aS'root://eoscms.cern.ch//eos/cms/store/cmst3/group/bpark/BParkingNANO_2019Sep12/ParkingBPH2/crab_data_Run2018C_part2/190912_155245/0000//BParkNANO_data_2019Sep12_967.root'
p19
aS'root://eoscms.cern.ch//eos/cms/store/cmst3/group/bpark/BParkingNANO_2019Sep12/ParkingBPH2/crab_data_Run2018C_part2/190912_155245/0000//BParkNANO_data_2019Sep12_968.root'
p20
aS'root://eoscms.cern.ch//eos/cms/store/cmst3/group/bpark/BParkingNANO_2019Sep12/ParkingBPH2/crab_data_Run2018C_part2/190912_155245/0000//BParkNANO_data_2019Sep12_969.root'
p21
aS'root://eoscms.cern.ch//eos/cms/store/cmst3/group/bpark/BParkingNANO_2019Sep12/ParkingBPH2/crab_data_Run2018C_part2/190912_155245/0000//BParkNANO_data_2019Sep12_97.root'
p22
aS'root://eoscms.cern.ch//eos/cms/store/cmst3/group/bpark/BParkingNANO_2019Sep12/ParkingBPH2/crab_data_Run2018C_part2/190912_155245/0000//BParkNANO_data_2019Sep12_970.root'
p23
aS'root://eoscms.cern.ch//eos/cms/store/cmst3/group/bpark/BParkingNANO_2019Sep12/ParkingBPH2/crab_data_Run2018C_part2/190912_155245/0000//BParkNANO_data_2019Sep12_971.root'
p24
aS'root://eoscms.cern.ch//eos/cms/store/cmst3/group/bpark/BParkingNANO_2019Sep12/ParkingBPH2/crab_data_Run2018C_part2/190912_155245/0000//BParkNANO_data_2019Sep12_972.root'
p25
aS'root://eoscms.cern.ch//eos/cms/store/cmst3/group/bpark/BParkingNANO_2019Sep12/ParkingBPH2/crab_data_Run2018C_part2/190912_155245/0000//BParkNANO_data_2019Sep12_973.root'
p26
aS'root://eoscms.cern.ch//eos/cms/store/cmst3/group/bpark/BParkingNANO_2019Sep12/ParkingBPH2/crab_data_Run2018C_part2/190912_155245/0000//BParkNANO_data_2019Sep12_974.root'
p27
aS'root://eoscms.cern.ch//eos/cms/store/cmst3/group/bpark/BParkingNANO_2019Sep12/ParkingBPH2/crab_data_Run2018C_part2/190912_155245/0000//BParkNANO_data_2019Sep12_975.root'
p28
aS'root://eoscms.cern.ch//eos/cms/store/cmst3/group/bpark/BParkingNANO_2019Sep12/ParkingBPH2/crab_data_Run2018C_part2/190912_155245/0000//BParkNANO_data_2019Sep12_976.root'
p29
aS'root://eoscms.cern.ch//eos/cms/store/cmst3/group/bpark/BParkingNANO_2019Sep12/ParkingBPH2/crab_data_Run2018C_part2/190912_155245/0000//BParkNANO_data_2019Sep12_977.root'
p30
aS'root://eoscms.cern.ch//eos/cms/store/cmst3/group/bpark/BParkingNANO_2019Sep12/ParkingBPH2/crab_data_Run2018C_part2/190912_155245/0000//BParkNANO_data_2019Sep12_978.root'
p31
aS'root://eoscms.cern.ch//eos/cms/store/cmst3/group/bpark/BParkingNANO_2019Sep12/ParkingBPH2/crab_data_Run2018C_part2/190912_155245/0000//BParkNANO_data_2019Sep12_979.root'
p32
aS'root://eoscms.cern.ch//eos/cms/store/cmst3/group/bpark/BParkingNANO_2019Sep12/ParkingBPH2/crab_data_Run2018C_part2/190912_155245/0000//BParkNANO_data_2019Sep12_98.root'
p33
aS'root://eoscms.cern.ch//eos/cms/store/cmst3/group/bpark/BParkingNANO_2019Sep12/ParkingBPH2/crab_data_Run2018C_part2/190912_155245/0000//BParkNANO_data_2019Sep12_980.root'
p34
aS'root://eoscms.cern.ch//eos/cms/store/cmst3/group/bpark/BParkingNANO_2019Sep12/ParkingBPH2/crab_data_Run2018C_part2/190912_155245/0000//BParkNANO_data_2019Sep12_981.root'
p35
aS'root://eoscms.cern.ch//eos/cms/store/cmst3/group/bpark/BParkingNANO_2019Sep12/ParkingBPH2/crab_data_Run2018C_part2/190912_155245/0000//BParkNANO_data_2019Sep12_982.root'
p36
aS'root://eoscms.cern.ch//eos/cms/store/cmst3/group/bpark/BParkingNANO_2019Sep12/ParkingBPH2/crab_data_Run2018C_part2/190912_155245/0000//BParkNANO_data_2019Sep12_983.root'
p37
aS'root://eoscms.cern.ch//eos/cms/store/cmst3/group/bpark/BParkingNANO_2019Sep12/ParkingBPH2/crab_data_Run2018C_part2/190912_155245/0000//BParkNANO_data_2019Sep12_984.root'
p38
aS'root://eoscms.cern.ch//eos/cms/store/cmst3/group/bpark/BParkingNANO_2019Sep12/ParkingBPH2/crab_data_Run2018C_part2/190912_155245/0000//BParkNANO_data_2019Sep12_985.root'
p39
aS'root://eoscms.cern.ch//eos/cms/store/cmst3/group/bpark/BParkingNANO_2019Sep12/ParkingBPH2/crab_data_Run2018C_part2/190912_155245/0000//BParkNANO_data_2019Sep12_986.root'
p40
aS'root://eoscms.cern.ch//eos/cms/store/cmst3/group/bpark/BParkingNANO_2019Sep12/ParkingBPH2/crab_data_Run2018C_part2/190912_155245/0000//BParkNANO_data_2019Sep12_987.root'
p41
aS'root://eoscms.cern.ch//eos/cms/store/cmst3/group/bpark/BParkingNANO_2019Sep12/ParkingBPH2/crab_data_Run2018C_part2/190912_155245/0000//BParkNANO_data_2019Sep12_988.root'
p42
aS'root://eoscms.cern.ch//eos/cms/store/cmst3/group/bpark/BParkingNANO_2019Sep12/ParkingBPH2/crab_data_Run2018C_part2/190912_155245/0000//BParkNANO_data_2019Sep12_989.root'
p43
aS'root://eoscms.cern.ch//eos/cms/store/cmst3/group/bpark/BParkingNANO_2019Sep12/ParkingBPH2/crab_data_Run2018C_part2/190912_155245/0000//BParkNANO_data_2019Sep12_99.root'
p44
aS'root://eoscms.cern.ch//eos/cms/store/cmst3/group/bpark/BParkingNANO_2019Sep12/ParkingBPH2/crab_data_Run2018C_part2/190912_155245/0000//BParkNANO_data_2019Sep12_990.root'
p45
aS'root://eoscms.cern.ch//eos/cms/store/cmst3/group/bpark/BParkingNANO_2019Sep12/ParkingBPH2/crab_data_Run2018C_part2/190912_155245/0000//BParkNANO_data_2019Sep12_991.root'
p46
aS'root://eoscms.cern.ch//eos/cms/store/cmst3/group/bpark/BParkingNANO_2019Sep12/ParkingBPH2/crab_data_Run2018C_part2/190912_155245/0000//BParkNANO_data_2019Sep12_992.root'
p47
aS'root://eoscms.cern.ch//eos/cms/store/cmst3/group/bpark/BParkingNANO_2019Sep12/ParkingBPH2/crab_data_Run2018C_part2/190912_155245/0000//BParkNANO_data_2019Sep12_993.root'
p48
aS'root://eoscms.cern.ch//eos/cms/store/cmst3/group/bpark/BParkingNANO_2019Sep12/ParkingBPH2/crab_data_Run2018C_part2/190912_155245/0000//BParkNANO_data_2019Sep12_994.root'
p49
aS'root://eoscms.cern.ch//eos/cms/store/cmst3/group/bpark/BParkingNANO_2019Sep12/ParkingBPH2/crab_data_Run2018C_part2/190912_155245/0000//BParkNANO_data_2019Sep12_995.root'
p50
aS'root://eoscms.cern.ch//eos/cms/store/cmst3/group/bpark/BParkingNANO_2019Sep12/ParkingBPH2/crab_data_Run2018C_part2/190912_155245/0000//BParkNANO_data_2019Sep12_996.root'
p51
aS'root://eoscms.cern.ch//eos/cms/store/cmst3/group/bpark/BParkingNANO_2019Sep12/ParkingBPH2/crab_data_Run2018C_part2/190912_155245/0000//BParkNANO_data_2019Sep12_997.root'
p52
aS'root://eoscms.cern.ch//eos/cms/store/cmst3/group/bpark/BParkingNANO_2019Sep12/ParkingBPH2/crab_data_Run2018C_part2/190912_155245/0000//BParkNANO_data_2019Sep12_998.root'
p53
aS'root://eoscms.cern.ch//eos/cms/store/cmst3/group/bpark/BParkingNANO_2019Sep12/ParkingBPH2/crab_data_Run2018C_part2/190912_155245/0000//BParkNANO_data_2019Sep12_999.root'
p54
asS'isEmbed'
p55
I00
sS'name'
p56
S'RunC2018_part2_0_Chunk19'
p57
sS'isData'
p58
I01
sS'triggers'
p59
(lp60
S'HLT_Mu9_IP6_*'
p61
aS'HLT_Mu9_IP5_*'
p62
aS'HLT_Mu9_IP4_*'
p63
asS'splitFactor'
p64
I20
sS'dataset_entries'
p65
I0
sS'json'
p66
NsS'isMC'
p67
I00
sS'tree_name'
p68
NsS'intLumi'
p69
I1
sb.