ccopy_reg
_reconstructor
p0
(cPhysicsTools.HeppyCore.framework.config
DataComponent
p1
c__builtin__
object
p2
Ntp3
Rp4
(dp5
S'files'
p6
(lp7
S'root://eoscms.cern.ch//eos/cms/store/cmst3/group/bpark/BParkingNANO_2019Sep12/ParkingBPH2/crab_data_Run2018C_part2/190912_155245/0001//BParkNANO_data_2019Sep12_1184.root'
p8
aS'root://eoscms.cern.ch//eos/cms/store/cmst3/group/bpark/BParkingNANO_2019Sep12/ParkingBPH2/crab_data_Run2018C_part2/190912_155245/0001//BParkNANO_data_2019Sep12_1185.root'
p9
aS'root://eoscms.cern.ch//eos/cms/store/cmst3/group/bpark/BParkingNANO_2019Sep12/ParkingBPH2/crab_data_Run2018C_part2/190912_155245/0001//BParkNANO_data_2019Sep12_1186.root'
p10
aS'root://eoscms.cern.ch//eos/cms/store/cmst3/group/bpark/BParkingNANO_2019Sep12/ParkingBPH2/crab_data_Run2018C_part2/190912_155245/0001//BParkNANO_data_2019Sep12_1187.root'
p11
aS'root://eoscms.cern.ch//eos/cms/store/cmst3/group/bpark/BParkingNANO_2019Sep12/ParkingBPH2/crab_data_Run2018C_part2/190912_155245/0001//BParkNANO_data_2019Sep12_1188.root'
p12
aS'root://eoscms.cern.ch//eos/cms/store/cmst3/group/bpark/BParkingNANO_2019Sep12/ParkingBPH2/crab_data_Run2018C_part2/190912_155245/0001//BParkNANO_data_2019Sep12_1189.root'
p13
aS'root://eoscms.cern.ch//eos/cms/store/cmst3/group/bpark/BParkingNANO_2019Sep12/ParkingBPH2/crab_data_Run2018C_part2/190912_155245/0001//BParkNANO_data_2019Sep12_1190.root'
p14
aS'root://eoscms.cern.ch//eos/cms/store/cmst3/group/bpark/BParkingNANO_2019Sep12/ParkingBPH2/crab_data_Run2018C_part2/190912_155245/0001//BParkNANO_data_2019Sep12_1191.root'
p15
aS'root://eoscms.cern.ch//eos/cms/store/cmst3/group/bpark/BParkingNANO_2019Sep12/ParkingBPH2/crab_data_Run2018C_part2/190912_155245/0001//BParkNANO_data_2019Sep12_1192.root'
p16
aS'root://eoscms.cern.ch//eos/cms/store/cmst3/group/bpark/BParkingNANO_2019Sep12/ParkingBPH2/crab_data_Run2018C_part2/190912_155245/0001//BParkNANO_data_2019Sep12_1193.root'
p17
aS'root://eoscms.cern.ch//eos/cms/store/cmst3/group/bpark/BParkingNANO_2019Sep12/ParkingBPH2/crab_data_Run2018C_part2/190912_155245/0001//BParkNANO_data_2019Sep12_1194.root'
p18
aS'root://eoscms.cern.ch//eos/cms/store/cmst3/group/bpark/BParkingNANO_2019Sep12/ParkingBPH2/crab_data_Run2018C_part2/190912_155245/0001//BParkNANO_data_2019Sep12_1195.root'
p19
aS'root://eoscms.cern.ch//eos/cms/store/cmst3/group/bpark/BParkingNANO_2019Sep12/ParkingBPH2/crab_data_Run2018C_part2/190912_155245/0001//BParkNANO_data_2019Sep12_1196.root'
p20
aS'root://eoscms.cern.ch//eos/cms/store/cmst3/group/bpark/BParkingNANO_2019Sep12/ParkingBPH2/crab_data_Run2018C_part2/190912_155245/0001//BParkNANO_data_2019Sep12_1197.root'
p21
aS'root://eoscms.cern.ch//eos/cms/store/cmst3/group/bpark/BParkingNANO_2019Sep12/ParkingBPH2/crab_data_Run2018C_part2/190912_155245/0001//BParkNANO_data_2019Sep12_1198.root'
p22
aS'root://eoscms.cern.ch//eos/cms/store/cmst3/group/bpark/BParkingNANO_2019Sep12/ParkingBPH2/crab_data_Run2018C_part2/190912_155245/0001//BParkNANO_data_2019Sep12_1199.root'
p23
aS'root://eoscms.cern.ch//eos/cms/store/cmst3/group/bpark/BParkingNANO_2019Sep12/ParkingBPH2/crab_data_Run2018C_part2/190912_155245/0001//BParkNANO_data_2019Sep12_1200.root'
p24
aS'root://eoscms.cern.ch//eos/cms/store/cmst3/group/bpark/BParkingNANO_2019Sep12/ParkingBPH2/crab_data_Run2018C_part2/190912_155245/0001//BParkNANO_data_2019Sep12_1201.root'
p25
aS'root://eoscms.cern.ch//eos/cms/store/cmst3/group/bpark/BParkingNANO_2019Sep12/ParkingBPH2/crab_data_Run2018C_part2/190912_155245/0001//BParkNANO_data_2019Sep12_1202.root'
p26
aS'root://eoscms.cern.ch//eos/cms/store/cmst3/group/bpark/BParkingNANO_2019Sep12/ParkingBPH2/crab_data_Run2018C_part2/190912_155245/0001//BParkNANO_data_2019Sep12_1203.root'
p27
aS'root://eoscms.cern.ch//eos/cms/store/cmst3/group/bpark/BParkingNANO_2019Sep12/ParkingBPH2/crab_data_Run2018C_part2/190912_155245/0001//BParkNANO_data_2019Sep12_1204.root'
p28
aS'root://eoscms.cern.ch//eos/cms/store/cmst3/group/bpark/BParkingNANO_2019Sep12/ParkingBPH2/crab_data_Run2018C_part2/190912_155245/0001//BParkNANO_data_2019Sep12_1205.root'
p29
aS'root://eoscms.cern.ch//eos/cms/store/cmst3/group/bpark/BParkingNANO_2019Sep12/ParkingBPH2/crab_data_Run2018C_part2/190912_155245/0001//BParkNANO_data_2019Sep12_1206.root'
p30
asS'isEmbed'
p31
I00
sS'name'
p32
S'RunC2018_part2_1_Chunk8'
p33
sS'isData'
p34
I01
sS'triggers'
p35
(lp36
S'HLT_Mu9_IP6_*'
p37
aS'HLT_Mu9_IP5_*'
p38
aS'HLT_Mu9_IP4_*'
p39
asS'splitFactor'
p40
I20
sS'dataset_entries'
p41
I0
sS'json'
p42
NsS'isMC'
p43
I00
sS'tree_name'
p44
NsS'intLumi'
p45
I1
sb.