ccopy_reg
_reconstructor
p0
(cPhysicsTools.HeppyCore.framework.config
DataComponent
p1
c__builtin__
object
p2
Ntp3
Rp4
(dp5
S'files'
p6
(lp7
S'root://eoscms.cern.ch//eos/cms/store/cmst3/group/bpark/BParkingNANO_2019Sep12/ParkingBPH2//crab_data_Run2018A_part2/190912_154729/0001//BParkNANO_data_2019Sep12_1220.root'
p8
aS'root://eoscms.cern.ch//eos/cms/store/cmst3/group/bpark/BParkingNANO_2019Sep12/ParkingBPH2//crab_data_Run2018A_part2/190912_154729/0001//BParkNANO_data_2019Sep12_1221.root'
p9
aS'root://eoscms.cern.ch//eos/cms/store/cmst3/group/bpark/BParkingNANO_2019Sep12/ParkingBPH2//crab_data_Run2018A_part2/190912_154729/0001//BParkNANO_data_2019Sep12_1222.root'
p10
aS'root://eoscms.cern.ch//eos/cms/store/cmst3/group/bpark/BParkingNANO_2019Sep12/ParkingBPH2//crab_data_Run2018A_part2/190912_154729/0001//BParkNANO_data_2019Sep12_1223.root'
p11
asS'isEmbed'
p12
I00
sS'name'
p13
S'RunA2018_part2_1_Chunk55'
p14
sS'isData'
p15
I01
sS'triggers'
p16
(lp17
S'HLT_Mu9_IP6_*'
p18
aS'HLT_Mu9_IP5_*'
p19
aS'HLT_Mu9_IP4_*'
p20
asS'splitFactor'
p21
I100
sS'dataset_entries'
p22
I0
sS'json'
p23
NsS'isMC'
p24
I00
sS'tree_name'
p25
NsS'intLumi'
p26
I1
sb.