ccopy_reg
_reconstructor
p0
(cPhysicsTools.HeppyCore.framework.config
DataComponent
p1
c__builtin__
object
p2
Ntp3
Rp4
(dp5
S'files'
p6
(lp7
S'root://eoscms.cern.ch//eos/cms/store/cmst3/group/bpark/BParkingNANO_2019Sep12/ParkingBPH2//crab_data_Run2018A_part2/190912_154729/0001//BParkNANO_data_2019Sep12_1036.root'
p8
aS'root://eoscms.cern.ch//eos/cms/store/cmst3/group/bpark/BParkingNANO_2019Sep12/ParkingBPH2//crab_data_Run2018A_part2/190912_154729/0001//BParkNANO_data_2019Sep12_1037.root'
p9
aS'root://eoscms.cern.ch//eos/cms/store/cmst3/group/bpark/BParkingNANO_2019Sep12/ParkingBPH2//crab_data_Run2018A_part2/190912_154729/0001//BParkNANO_data_2019Sep12_1038.root'
p10
aS'root://eoscms.cern.ch//eos/cms/store/cmst3/group/bpark/BParkingNANO_2019Sep12/ParkingBPH2//crab_data_Run2018A_part2/190912_154729/0001//BParkNANO_data_2019Sep12_1039.root'
p11
aS'root://eoscms.cern.ch//eos/cms/store/cmst3/group/bpark/BParkingNANO_2019Sep12/ParkingBPH2//crab_data_Run2018A_part2/190912_154729/0001//BParkNANO_data_2019Sep12_1040.root'
p12
aS'root://eoscms.cern.ch//eos/cms/store/cmst3/group/bpark/BParkingNANO_2019Sep12/ParkingBPH2//crab_data_Run2018A_part2/190912_154729/0001//BParkNANO_data_2019Sep12_1041.root'
p13
aS'root://eoscms.cern.ch//eos/cms/store/cmst3/group/bpark/BParkingNANO_2019Sep12/ParkingBPH2//crab_data_Run2018A_part2/190912_154729/0001//BParkNANO_data_2019Sep12_1042.root'
p14
aS'root://eoscms.cern.ch//eos/cms/store/cmst3/group/bpark/BParkingNANO_2019Sep12/ParkingBPH2//crab_data_Run2018A_part2/190912_154729/0001//BParkNANO_data_2019Sep12_1043.root'
p15
aS'root://eoscms.cern.ch//eos/cms/store/cmst3/group/bpark/BParkingNANO_2019Sep12/ParkingBPH2//crab_data_Run2018A_part2/190912_154729/0001//BParkNANO_data_2019Sep12_1044.root'
p16
aS'root://eoscms.cern.ch//eos/cms/store/cmst3/group/bpark/BParkingNANO_2019Sep12/ParkingBPH2//crab_data_Run2018A_part2/190912_154729/0001//BParkNANO_data_2019Sep12_1045.root'
p17
aS'root://eoscms.cern.ch//eos/cms/store/cmst3/group/bpark/BParkingNANO_2019Sep12/ParkingBPH2//crab_data_Run2018A_part2/190912_154729/0001//BParkNANO_data_2019Sep12_1046.root'
p18
aS'root://eoscms.cern.ch//eos/cms/store/cmst3/group/bpark/BParkingNANO_2019Sep12/ParkingBPH2//crab_data_Run2018A_part2/190912_154729/0001//BParkNANO_data_2019Sep12_1047.root'
p19
aS'root://eoscms.cern.ch//eos/cms/store/cmst3/group/bpark/BParkingNANO_2019Sep12/ParkingBPH2//crab_data_Run2018A_part2/190912_154729/0001//BParkNANO_data_2019Sep12_1048.root'
p20
aS'root://eoscms.cern.ch//eos/cms/store/cmst3/group/bpark/BParkingNANO_2019Sep12/ParkingBPH2//crab_data_Run2018A_part2/190912_154729/0001//BParkNANO_data_2019Sep12_1049.root'
p21
aS'root://eoscms.cern.ch//eos/cms/store/cmst3/group/bpark/BParkingNANO_2019Sep12/ParkingBPH2//crab_data_Run2018A_part2/190912_154729/0001//BParkNANO_data_2019Sep12_1050.root'
p22
aS'root://eoscms.cern.ch//eos/cms/store/cmst3/group/bpark/BParkingNANO_2019Sep12/ParkingBPH2//crab_data_Run2018A_part2/190912_154729/0001//BParkNANO_data_2019Sep12_1051.root'
p23
aS'root://eoscms.cern.ch//eos/cms/store/cmst3/group/bpark/BParkingNANO_2019Sep12/ParkingBPH2//crab_data_Run2018A_part2/190912_154729/0001//BParkNANO_data_2019Sep12_1052.root'
p24
aS'root://eoscms.cern.ch//eos/cms/store/cmst3/group/bpark/BParkingNANO_2019Sep12/ParkingBPH2//crab_data_Run2018A_part2/190912_154729/0001//BParkNANO_data_2019Sep12_1053.root'
p25
aS'root://eoscms.cern.ch//eos/cms/store/cmst3/group/bpark/BParkingNANO_2019Sep12/ParkingBPH2//crab_data_Run2018A_part2/190912_154729/0001//BParkNANO_data_2019Sep12_1054.root'
p26
aS'root://eoscms.cern.ch//eos/cms/store/cmst3/group/bpark/BParkingNANO_2019Sep12/ParkingBPH2//crab_data_Run2018A_part2/190912_154729/0001//BParkNANO_data_2019Sep12_1055.root'
p27
aS'root://eoscms.cern.ch//eos/cms/store/cmst3/group/bpark/BParkingNANO_2019Sep12/ParkingBPH2//crab_data_Run2018A_part2/190912_154729/0001//BParkNANO_data_2019Sep12_1056.root'
p28
aS'root://eoscms.cern.ch//eos/cms/store/cmst3/group/bpark/BParkingNANO_2019Sep12/ParkingBPH2//crab_data_Run2018A_part2/190912_154729/0001//BParkNANO_data_2019Sep12_1057.root'
p29
aS'root://eoscms.cern.ch//eos/cms/store/cmst3/group/bpark/BParkingNANO_2019Sep12/ParkingBPH2//crab_data_Run2018A_part2/190912_154729/0001//BParkNANO_data_2019Sep12_1058.root'
p30
aS'root://eoscms.cern.ch//eos/cms/store/cmst3/group/bpark/BParkingNANO_2019Sep12/ParkingBPH2//crab_data_Run2018A_part2/190912_154729/0001//BParkNANO_data_2019Sep12_1059.root'
p31
aS'root://eoscms.cern.ch//eos/cms/store/cmst3/group/bpark/BParkingNANO_2019Sep12/ParkingBPH2//crab_data_Run2018A_part2/190912_154729/0001//BParkNANO_data_2019Sep12_1060.root'
p32
aS'root://eoscms.cern.ch//eos/cms/store/cmst3/group/bpark/BParkingNANO_2019Sep12/ParkingBPH2//crab_data_Run2018A_part2/190912_154729/0001//BParkNANO_data_2019Sep12_1061.root'
p33
aS'root://eoscms.cern.ch//eos/cms/store/cmst3/group/bpark/BParkingNANO_2019Sep12/ParkingBPH2//crab_data_Run2018A_part2/190912_154729/0001//BParkNANO_data_2019Sep12_1062.root'
p34
aS'root://eoscms.cern.ch//eos/cms/store/cmst3/group/bpark/BParkingNANO_2019Sep12/ParkingBPH2//crab_data_Run2018A_part2/190912_154729/0001//BParkNANO_data_2019Sep12_1063.root'
p35
aS'root://eoscms.cern.ch//eos/cms/store/cmst3/group/bpark/BParkingNANO_2019Sep12/ParkingBPH2//crab_data_Run2018A_part2/190912_154729/0001//BParkNANO_data_2019Sep12_1064.root'
p36
aS'root://eoscms.cern.ch//eos/cms/store/cmst3/group/bpark/BParkingNANO_2019Sep12/ParkingBPH2//crab_data_Run2018A_part2/190912_154729/0001//BParkNANO_data_2019Sep12_1065.root'
p37
aS'root://eoscms.cern.ch//eos/cms/store/cmst3/group/bpark/BParkingNANO_2019Sep12/ParkingBPH2//crab_data_Run2018A_part2/190912_154729/0001//BParkNANO_data_2019Sep12_1066.root'
p38
aS'root://eoscms.cern.ch//eos/cms/store/cmst3/group/bpark/BParkingNANO_2019Sep12/ParkingBPH2//crab_data_Run2018A_part2/190912_154729/0001//BParkNANO_data_2019Sep12_1067.root'
p39
aS'root://eoscms.cern.ch//eos/cms/store/cmst3/group/bpark/BParkingNANO_2019Sep12/ParkingBPH2//crab_data_Run2018A_part2/190912_154729/0001//BParkNANO_data_2019Sep12_1068.root'
p40
aS'root://eoscms.cern.ch//eos/cms/store/cmst3/group/bpark/BParkingNANO_2019Sep12/ParkingBPH2//crab_data_Run2018A_part2/190912_154729/0001//BParkNANO_data_2019Sep12_1069.root'
p41
aS'root://eoscms.cern.ch//eos/cms/store/cmst3/group/bpark/BParkingNANO_2019Sep12/ParkingBPH2//crab_data_Run2018A_part2/190912_154729/0001//BParkNANO_data_2019Sep12_1070.root'
p42
aS'root://eoscms.cern.ch//eos/cms/store/cmst3/group/bpark/BParkingNANO_2019Sep12/ParkingBPH2//crab_data_Run2018A_part2/190912_154729/0001//BParkNANO_data_2019Sep12_1071.root'
p43
asS'isEmbed'
p44
I00
sS'name'
p45
S'RunA2018_part2_1_Chunk1'
p46
sS'isData'
p47
I01
sS'triggers'
p48
(lp49
sS'splitFactor'
p50
I10
sS'dataset_entries'
p51
I0
sS'json'
p52
NsS'isMC'
p53
I00
sS'tree_name'
p54
NsS'intLumi'
p55
I1
sb.