ccopy_reg
_reconstructor
p0
(cPhysicsTools.HeppyCore.framework.config
DataComponent
p1
c__builtin__
object
p2
Ntp3
Rp4
(dp5
S'files'
p6
(lp7
S'root://eoscms.cern.ch//eos/cms/store/cmst3/group/bpark/BParkingNANO_2019Sep12/ParkingBPH2/crab_data_Run2018C_part2/190912_155245/0000//BParkNANO_data_2019Sep12_344.root'
p8
aS'root://eoscms.cern.ch//eos/cms/store/cmst3/group/bpark/BParkingNANO_2019Sep12/ParkingBPH2/crab_data_Run2018C_part2/190912_155245/0000//BParkNANO_data_2019Sep12_345.root'
p9
aS'root://eoscms.cern.ch//eos/cms/store/cmst3/group/bpark/BParkingNANO_2019Sep12/ParkingBPH2/crab_data_Run2018C_part2/190912_155245/0000//BParkNANO_data_2019Sep12_346.root'
p10
aS'root://eoscms.cern.ch//eos/cms/store/cmst3/group/bpark/BParkingNANO_2019Sep12/ParkingBPH2/crab_data_Run2018C_part2/190912_155245/0000//BParkNANO_data_2019Sep12_347.root'
p11
aS'root://eoscms.cern.ch//eos/cms/store/cmst3/group/bpark/BParkingNANO_2019Sep12/ParkingBPH2/crab_data_Run2018C_part2/190912_155245/0000//BParkNANO_data_2019Sep12_348.root'
p12
aS'root://eoscms.cern.ch//eos/cms/store/cmst3/group/bpark/BParkingNANO_2019Sep12/ParkingBPH2/crab_data_Run2018C_part2/190912_155245/0000//BParkNANO_data_2019Sep12_349.root'
p13
aS'root://eoscms.cern.ch//eos/cms/store/cmst3/group/bpark/BParkingNANO_2019Sep12/ParkingBPH2/crab_data_Run2018C_part2/190912_155245/0000//BParkNANO_data_2019Sep12_35.root'
p14
aS'root://eoscms.cern.ch//eos/cms/store/cmst3/group/bpark/BParkingNANO_2019Sep12/ParkingBPH2/crab_data_Run2018C_part2/190912_155245/0000//BParkNANO_data_2019Sep12_350.root'
p15
aS'root://eoscms.cern.ch//eos/cms/store/cmst3/group/bpark/BParkingNANO_2019Sep12/ParkingBPH2/crab_data_Run2018C_part2/190912_155245/0000//BParkNANO_data_2019Sep12_351.root'
p16
aS'root://eoscms.cern.ch//eos/cms/store/cmst3/group/bpark/BParkingNANO_2019Sep12/ParkingBPH2/crab_data_Run2018C_part2/190912_155245/0000//BParkNANO_data_2019Sep12_352.root'
p17
asS'isEmbed'
p18
I00
sS'name'
p19
S'RunC2018_part2_0_Chunk27'
p20
sS'isData'
p21
I01
sS'triggers'
p22
(lp23
S'HLT_Mu9_IP6_*'
p24
aS'HLT_Mu9_IP5_*'
p25
aS'HLT_Mu9_IP4_*'
p26
asS'splitFactor'
p27
I100
sS'dataset_entries'
p28
I0
sS'json'
p29
NsS'isMC'
p30
I00
sS'tree_name'
p31
NsS'intLumi'
p32
I1
sb.