ccopy_reg
_reconstructor
p0
(cPhysicsTools.HeppyCore.framework.config
DataComponent
p1
c__builtin__
object
p2
Ntp3
Rp4
(dp5
S'files'
p6
(lp7
S'root://eoscms.cern.ch//eos/cms/store/cmst3/group/bpark/BParkingNANO_2019Sep12/ParkingBPH2/crab_data_Run2018B_part2/190912_183627/0001//BParkNANO_data_2019Sep12_1348.root'
p8
aS'root://eoscms.cern.ch//eos/cms/store/cmst3/group/bpark/BParkingNANO_2019Sep12/ParkingBPH2/crab_data_Run2018B_part2/190912_183627/0001//BParkNANO_data_2019Sep12_1349.root'
p9
asS'isEmbed'
p10
I00
sS'name'
p11
S'RunB2018_part2_1_Chunk87'
p12
sS'isData'
p13
I01
sS'triggers'
p14
(lp15
S'HLT_Mu9_IP6_*'
p16
aS'HLT_Mu9_IP5_*'
p17
aS'HLT_Mu9_IP4_*'
p18
asS'splitFactor'
p19
I100
sS'dataset_entries'
p20
I0
sS'json'
p21
NsS'isMC'
p22
I00
sS'tree_name'
p23
NsS'intLumi'
p24
I1
sb.